target datalayout = "e-m:e-p270:32:32-p271:32:32-p272:64:64-i64:64-i128:128-f80:128-n8:16:32:64-S128"
target triple = "x86_64-pc-linux-gnu"

%struct._xdot_op = type { i32, %union.anon, ptr }
%union.anon = type { %struct.xdot_color }
%struct.xdot_color = type { i32, %union.anon.0 }
%union.anon.0 = type { %struct.xdot_radial_grad }
%struct.xdot_radial_grad = type { double, double, double, double, double, double, i32, ptr }
%struct.xdot = type { i64, i64, ptr, ptr, i32 }
%struct.xdot_polyline = type { i64, ptr }
%struct.xdot_stats = type { i64, i64, i64, i64, i64, i64, i64, i64, i64, i64, i64, i64, i64, i64, i64 }

; Function Attrs: nounwind uwtable
define i32 @statXDot(ptr noundef %0, ptr noundef %1) #0 {
  %3 = alloca i32, align 4
  %4 = alloca ptr, align 8
  %5 = alloca ptr, align 8
  %6 = alloca ptr, align 8
  %7 = alloca ptr, align 8
  %8 = alloca i32, align 4
  %9 = alloca i64, align 8
  store ptr %0, ptr %4, align 8, !tbaa !8
  store ptr %1, ptr %5, align 8, !tbaa !8
  call void @llvm.lifetime.start.p0(i64 8, ptr %6) #13
  call void @llvm.lifetime.start.p0(i64 8, ptr %7) #13
  %10 = load ptr, ptr %4, align 8, !tbaa !8
  %11 = icmp ne ptr %10, null
  br i1 %11, label %12, label %15

12:                                               ; preds = %2
  %13 = load ptr, ptr %5, align 8, !tbaa !8
  %14 = icmp ne ptr %13, null
  br i1 %14, label %16, label %15

15:                                               ; preds = %12, %2
  store i32 1, ptr %3, align 4
  store i32 1, ptr %8, align 4
  br label %129

16:                                               ; preds = %12
  %17 = load ptr, ptr %5, align 8, !tbaa !8
  call void @llvm.memset.p0.i64(ptr align 8 %17, i8 0, i64 120, i1 false)
  %18 = load ptr, ptr %4, align 8, !tbaa !8
  %19 = getelementptr inbounds nuw %struct.xdot, ptr %18, i32 0, i32 0
  %20 = load i64, ptr %19, align 8, !tbaa !15
  %21 = load ptr, ptr %5, align 8, !tbaa !8
  %22 = getelementptr inbounds nuw %struct.xdot_stats, ptr %21, i32 0, i32 0
  store i64 %20, ptr %22, align 8, !tbaa !38
  %23 = load ptr, ptr %4, align 8, !tbaa !8
  %24 = getelementptr inbounds nuw %struct.xdot, ptr %23, i32 0, i32 2
  %25 = load ptr, ptr %24, align 8, !tbaa !16
  store ptr %25, ptr %7, align 8, !tbaa !3
  call void @llvm.lifetime.start.p0(i64 8, ptr %9) #13
  store i64 0, ptr %9, align 8, !tbaa !9
  br label %26

26:                                               ; preds = %125, %16
  %27 = load i64, ptr %9, align 8, !tbaa !9
  %28 = load ptr, ptr %4, align 8, !tbaa !8
  %29 = getelementptr inbounds nuw %struct.xdot, ptr %28, i32 0, i32 0
  %30 = load i64, ptr %29, align 8, !tbaa !15
  %31 = icmp ult i64 %27, %30
  br i1 %31, label %33, label %32

32:                                               ; preds = %26
  store i32 2, ptr %8, align 4
  call void @llvm.lifetime.end.p0(i64 8, ptr %9) #13
  br label %128

33:                                               ; preds = %26
  %34 = load ptr, ptr %7, align 8, !tbaa !3
  %35 = load i64, ptr %9, align 8, !tbaa !9
  %36 = load ptr, ptr %4, align 8, !tbaa !8
  %37 = getelementptr inbounds nuw %struct.xdot, ptr %36, i32 0, i32 1
  %38 = load i64, ptr %37, align 8, !tbaa !11
  %39 = mul i64 %35, %38
  %40 = getelementptr inbounds nuw i8, ptr %34, i64 %39
  store ptr %40, ptr %6, align 8, !tbaa !25
  %41 = load ptr, ptr %6, align 8, !tbaa !25
  %42 = getelementptr inbounds nuw %struct._xdot_op, ptr %41, i32 0, i32 0
  %43 = load i32, ptr %42, align 8, !tbaa !29
  switch i32 %43, label %123 [
    i32 0, label %44
    i32 1, label %44
    i32 2, label %49
    i32 3, label %49
    i32 4, label %62
    i32 5, label %62
    i32 6, label %75
    i32 7, label %88
    i32 12, label %93
    i32 8, label %98
    i32 9, label %98
    i32 13, label %103
    i32 14, label %103
    i32 10, label %108
    i32 15, label %113
    i32 11, label %118
  ]

44:                                               ; preds = %33, %33
  %45 = load ptr, ptr %5, align 8, !tbaa !8
  %46 = getelementptr inbounds nuw %struct.xdot_stats, ptr %45, i32 0, i32 1
  %47 = load i64, ptr %46, align 8, !tbaa !40
  %48 = add i64 %47, 1
  store i64 %48, ptr %46, align 8, !tbaa !40
  br label %124

49:                                               ; preds = %33, %33
  %50 = load ptr, ptr %5, align 8, !tbaa !8
  %51 = getelementptr inbounds nuw %struct.xdot_stats, ptr %50, i32 0, i32 2
  %52 = load i64, ptr %51, align 8, !tbaa !41
  %53 = add i64 %52, 1
  store i64 %53, ptr %51, align 8, !tbaa !41
  %54 = load ptr, ptr %6, align 8, !tbaa !25
  %55 = getelementptr inbounds nuw %struct._xdot_op, ptr %54, i32 0, i32 1
  %56 = getelementptr inbounds nuw %struct.xdot_polyline, ptr %55, i32 0, i32 0
  %57 = load i64, ptr %56, align 8, !tbaa !19
  %58 = load ptr, ptr %5, align 8, !tbaa !8
  %59 = getelementptr inbounds nuw %struct.xdot_stats, ptr %58, i32 0, i32 3
  %60 = load i64, ptr %59, align 8, !tbaa !42
  %61 = add i64 %60, %57
  store i64 %61, ptr %59, align 8, !tbaa !42
  br label %124

62:                                               ; preds = %33, %33
  %63 = load ptr, ptr %5, align 8, !tbaa !8
  %64 = getelementptr inbounds nuw %struct.xdot_stats, ptr %63, i32 0, i32 6
  %65 = load i64, ptr %64, align 8, !tbaa !43
  %66 = add i64 %65, 1
  store i64 %66, ptr %64, align 8, !tbaa !43
  %67 = load ptr, ptr %6, align 8, !tbaa !25
  %68 = getelementptr inbounds nuw %struct._xdot_op, ptr %67, i32 0, i32 1
  %69 = getelementptr inbounds nuw %struct.xdot_polyline, ptr %68, i32 0, i32 0
  %70 = load i64, ptr %69, align 8, !tbaa !19
  %71 = load ptr, ptr %5, align 8, !tbaa !8
  %72 = getelementptr inbounds nuw %struct.xdot_stats, ptr %71, i32 0, i32 7
  %73 = load i64, ptr %72, align 8, !tbaa !44
  %74 = add i64 %73, %70
  store i64 %74, ptr %72, align 8, !tbaa !44
  br label %124

75:                                               ; preds = %33
  %76 = load ptr, ptr %5, align 8, !tbaa !8
  %77 = getelementptr inbounds nuw %struct.xdot_stats, ptr %76, i32 0, i32 4
  %78 = load i64, ptr %77, align 8, !tbaa !45
  %79 = add i64 %78, 1
  store i64 %79, ptr %77, align 8, !tbaa !45
  %80 = load ptr, ptr %6, align 8, !tbaa !25
  %81 = getelementptr inbounds nuw %struct._xdot_op, ptr %80, i32 0, i32 1
  %82 = getelementptr inbounds nuw %struct.xdot_polyline, ptr %81, i32 0, i32 0
  %83 = load i64, ptr %82, align 8, !tbaa !19
  %84 = load ptr, ptr %5, align 8, !tbaa !8
  %85 = getelementptr inbounds nuw %struct.xdot_stats, ptr %84, i32 0, i32 5
  %86 = load i64, ptr %85, align 8, !tbaa !46
  %87 = add i64 %86, %83
  store i64 %87, ptr %85, align 8, !tbaa !46
  br label %124

88:                                               ; preds = %33
  %89 = load ptr, ptr %5, align 8, !tbaa !8
  %90 = getelementptr inbounds nuw %struct.xdot_stats, ptr %89, i32 0, i32 8
  %91 = load i64, ptr %90, align 8, !tbaa !47
  %92 = add i64 %91, 1
  store i64 %92, ptr %90, align 8, !tbaa !47
  br label %124

93:                                               ; preds = %33
  %94 = load ptr, ptr %5, align 8, !tbaa !8
  %95 = getelementptr inbounds nuw %struct.xdot_stats, ptr %94, i32 0, i32 12
  %96 = load i64, ptr %95, align 8, !tbaa !48
  %97 = add i64 %96, 1
  store i64 %97, ptr %95, align 8, !tbaa !48
  br label %124

98:                                               ; preds = %33, %33
  %99 = load ptr, ptr %5, align 8, !tbaa !8
  %100 = getelementptr inbounds nuw %struct.xdot_stats, ptr %99, i32 0, i32 11
  %101 = load i64, ptr %100, align 8, !tbaa !49
  %102 = add i64 %101, 1
  store i64 %102, ptr %100, align 8, !tbaa !49
  br label %124

103:                                              ; preds = %33, %33
  %104 = load ptr, ptr %5, align 8, !tbaa !8
  %105 = getelementptr inbounds nuw %struct.xdot_stats, ptr %104, i32 0, i32 13
  %106 = load i64, ptr %105, align 8, !tbaa !50
  %107 = add i64 %106, 1
  store i64 %107, ptr %105, align 8, !tbaa !50
  br label %124

108:                                              ; preds = %33
  %109 = load ptr, ptr %5, align 8, !tbaa !8
  %110 = getelementptr inbounds nuw %struct.xdot_stats, ptr %109, i32 0, i32 9
  %111 = load i64, ptr %110, align 8, !tbaa !51
  %112 = add i64 %111, 1
  store i64 %112, ptr %110, align 8, !tbaa !51
  br label %124

113:                                              ; preds = %33
  %114 = load ptr, ptr %5, align 8, !tbaa !8
  %115 = getelementptr inbounds nuw %struct.xdot_stats, ptr %114, i32 0, i32 14
  %116 = load i64, ptr %115, align 8, !tbaa !52
  %117 = add i64 %116, 1
  store i64 %117, ptr %115, align 8, !tbaa !52
  br label %124

118:                                              ; preds = %33
  %119 = load ptr, ptr %5, align 8, !tbaa !8
  %120 = getelementptr inbounds nuw %struct.xdot_stats, ptr %119, i32 0, i32 10
  %121 = load i64, ptr %120, align 8, !tbaa !53
  %122 = add i64 %121, 1
  store i64 %122, ptr %120, align 8, !tbaa !53
  br label %124

123:                                              ; preds = %33
  br label %124

124:                                              ; preds = %123, %118, %113, %108, %103, %98, %93, %88, %75, %62, %49, %44
  br label %125

125:                                              ; preds = %124
  %126 = load i64, ptr %9, align 8, !tbaa !9
  %127 = add i64 %126, 1
  store i64 %127, ptr %9, align 8, !tbaa !9
  br label %26, !llvm.loop !54

128:                                              ; preds = %32
  store i32 0, ptr %3, align 4
  store i32 1, ptr %8, align 4
  br label %129

129:                                              ; preds = %128, %15
  call void @llvm.lifetime.end.p0(i64 8, ptr %7) #13
  call void @llvm.lifetime.end.p0(i64 8, ptr %6) #13
  %130 = load i32, ptr %3, align 4
  ret i32 %130
}