; Function Attrs: nofree norecurse nosync nounwind memory(read, argmem: readwrite, inaccessiblemem: none) uwtable
define range(i32 0, 2) i32 @statXDot(ptr noundef readonly captures(address_is_null) %0, ptr noundef writeonly captures(address_is_null) %1) local_unnamed_addr #7 {
  %3 = icmp ne ptr %0, null
  %4 = icmp ne ptr %1, null
  %or.cond = and i1 %3, %4
  br i1 %or.cond, label %5, label %.loopexit

5:                                                ; preds = %2
  tail call void @llvm.memset.p0.i64(ptr noundef nonnull align 8 dereferenceable(120) %1, i8 0, i64 120, i1 false)
  %6 = load i64, ptr %0, align 8, !tbaa !13
  store i64 %6, ptr %1, align 8, !tbaa !56
  %7 = getelementptr inbounds nuw i8, ptr %0, i64 16
  %8 = load ptr, ptr %7, align 8, !tbaa !14
  %.not = icmp eq i64 %6, 0
  br i1 %.not, label %.loopexit, label %.lr.ph

.lr.ph:                                           ; preds = %5
  %9 = getelementptr inbounds nuw i8, ptr %0, i64 8
  %10 = load i64, ptr %9, align 8, !tbaa !8
  %11 = getelementptr inbounds nuw i8, ptr %1, i64 80
  %12 = getelementptr inbounds nuw i8, ptr %1, i64 112
  %13 = getelementptr inbounds nuw i8, ptr %1, i64 72
  %14 = getelementptr inbounds nuw i8, ptr %1, i64 104
  %15 = getelementptr inbounds nuw i8, ptr %1, i64 88
  %16 = getelementptr inbounds nuw i8, ptr %1, i64 96
  %17 = getelementptr inbounds nuw i8, ptr %1, i64 64
  %18 = getelementptr inbounds nuw i8, ptr %1, i64 32
  %19 = getelementptr inbounds nuw i8, ptr %1, i64 40
  %20 = getelementptr inbounds nuw i8, ptr %1, i64 48
  %21 = getelementptr inbounds nuw i8, ptr %1, i64 56
  %22 = getelementptr inbounds nuw i8, ptr %1, i64 16
  %23 = getelementptr inbounds nuw i8, ptr %1, i64 24
  %24 = getelementptr inbounds nuw i8, ptr %1, i64 8
  br label %25

25:                                               ; preds = %.lr.ph, %74
  %26 = phi i64 [ 0, %.lr.ph ], [ %75, %74 ]
  %27 = phi i64 [ 0, %.lr.ph ], [ %76, %74 ]
  %28 = phi i64 [ 0, %.lr.ph ], [ %77, %74 ]
  %29 = phi i64 [ 0, %.lr.ph ], [ %78, %74 ]
  %30 = phi i64 [ 0, %.lr.ph ], [ %79, %74 ]
  %31 = phi i64 [ 0, %.lr.ph ], [ %80, %74 ]
  %32 = phi i64 [ 0, %.lr.ph ], [ %81, %74 ]
  %33 = phi i64 [ 0, %.lr.ph ], [ %82, %74 ]
  %34 = phi i64 [ 0, %.lr.ph ], [ %83, %74 ]
  %35 = phi i64 [ 0, %.lr.ph ], [ %84, %74 ]
  %36 = phi i64 [ 0, %.lr.ph ], [ %85, %74 ]
  %37 = phi i64 [ 0, %.lr.ph ], [ %86, %74 ]
  %38 = phi i64 [ 0, %.lr.ph ], [ %87, %74 ]
  %39 = phi i64 [ 0, %.lr.ph ], [ %88, %74 ]
  %.034 = phi i64 [ 0, %.lr.ph ], [ %89, %74 ]
  %40 = mul i64 %10, %.034
  %41 = getelementptr inbounds nuw i8, ptr %8, i64 %40
  %42 = load i32, ptr %41, align 8, !tbaa !18
  switch i32 %42, label %74 [
    i32 0, label %43
    i32 1, label %43
    i32 2, label %45
    i32 3, label %45
    i32 4, label %50
    i32 5, label %50
    i32 6, label %55
    i32 7, label %60
    i32 12, label %62
    i32 8, label %64
    i32 9, label %64
    i32 13, label %66
    i32 14, label %66
    i32 10, label %68
    i32 15, label %70
    i32 11, label %72
  ]

43:                                               ; preds = %25, %25
  %44 = add i64 %26, 1
  store i64 %44, ptr %24, align 8, !tbaa !58
  br label %74

45:                                               ; preds = %25, %25
  %46 = add i64 %28, 1
  store i64 %46, ptr %22, align 8, !tbaa !59
  %47 = getelementptr inbounds nuw i8, ptr %41, i64 8
  %48 = load i64, ptr %47, align 8, !tbaa !15
  %49 = add i64 %27, %48
  store i64 %49, ptr %23, align 8, !tbaa !60
  br label %74

50:                                               ; preds = %25, %25
  %51 = add i64 %30, 1
  store i64 %51, ptr %20, align 8, !tbaa !61
  %52 = getelementptr inbounds nuw i8, ptr %41, i64 8
  %53 = load i64, ptr %52, align 8, !tbaa !15
  %54 = add i64 %29, %53
  store i64 %54, ptr %21, align 8, !tbaa !62
  br label %74

55:                                               ; preds = %25
  %56 = add i64 %32, 1
  store i64 %56, ptr %18, align 8, !tbaa !63
  %57 = getelementptr inbounds nuw i8, ptr %41, i64 8
  %58 = load i64, ptr %57, align 8, !tbaa !15
  %59 = add i64 %31, %58
  store i64 %59, ptr %19, align 8, !tbaa !64
  br label %74

60:                                               ; preds = %25
  %61 = add i64 %33, 1
  store i64 %61, ptr %17, align 8, !tbaa !65
  br label %74

62:                                               ; preds = %25
  %63 = add i64 %34, 1
  store i64 %63, ptr %16, align 8, !tbaa !66
  br label %74

64:                                               ; preds = %25, %25
  %65 = add i64 %35, 1
  store i64 %65, ptr %15, align 8, !tbaa !67
  br label %74

66:                                               ; preds = %25, %25
  %67 = add i64 %36, 1
  store i64 %67, ptr %14, align 8, !tbaa !68
  br label %74

68:                                               ; preds = %25
  %69 = add i64 %37, 1
  store i64 %69, ptr %13, align 8, !tbaa !69
  br label %74

70:                                               ; preds = %25
  %71 = add i64 %38, 1
  store i64 %71, ptr %12, align 8, !tbaa !70
  br label %74

72:                                               ; preds = %25
  %73 = add i64 %39, 1
  store i64 %73, ptr %11, align 8, !tbaa !71
  br label %74

74:                                               ; preds = %43, %45, %50, %55, %60, %62, %64, %66, %68, %70, %72, %25
  %75 = phi i64 [ %44, %43 ], [ %26, %45 ], [ %26, %50 ], [ %26, %55 ], [ %26, %60 ], [ %26, %62 ], [ %26, %64 ], [ %26, %66 ], [ %26, %68 ], [ %26, %70 ], [ %26, %72 ], [ %26, %25 ]
  %76 = phi i64 [ %27, %43 ], [ %49, %45 ], [ %27, %50 ], [ %27, %55 ], [ %27, %60 ], [ %27, %62 ], [ %27, %64 ], [ %27, %66 ], [ %27, %68 ], [ %27, %70 ], [ %27, %72 ], [ %27, %25 ]
  %77 = phi i64 [ %28, %43 ], [ %46, %45 ], [ %28, %50 ], [ %28, %55 ], [ %28, %60 ], [ %28, %62 ], [ %28, %64 ], [ %28, %66 ], [ %28, %68 ], [ %28, %70 ], [ %28, %72 ], [ %28, %25 ]
  %78 = phi i64 [ %29, %43 ], [ %29, %45 ], [ %54, %50 ], [ %29, %55 ], [ %29, %60 ], [ %29, %62 ], [ %29, %64 ], [ %29, %66 ], [ %29, %68 ], [ %29, %70 ], [ %29, %72 ], [ %29, %25 ]
  %79 = phi i64 [ %30, %43 ], [ %30, %45 ], [ %51, %50 ], [ %30, %55 ], [ %30, %60 ], [ %30, %62 ], [ %30, %64 ], [ %30, %66 ], [ %30, %68 ], [ %30, %70 ], [ %30, %72 ], [ %30, %25 ]
  %80 = phi i64 [ %31, %43 ], [ %31, %45 ], [ %31, %50 ], [ %59, %55 ], [ %31, %60 ], [ %31, %62 ], [ %31, %64 ], [ %31, %66 ], [ %31, %68 ], [ %31, %70 ], [ %31, %72 ], [ %31, %25 ]
  %81 = phi i64 [ %32, %43 ], [ %32, %45 ], [ %32, %50 ], [ %56, %55 ], [ %32, %60 ], [ %32, %62 ], [ %32, %64 ], [ %32, %66 ], [ %32, %68 ], [ %32, %70 ], [ %32, %72 ], [ %32, %25 ]
  %82 = phi i64 [ %33, %43 ], [ %33, %45 ], [ %33, %50 ], [ %33, %55 ], [ %61, %60 ], [ %33, %62 ], [ %33, %64 ], [ %33, %66 ], [ %33, %68 ], [ %33, %70 ], [ %33, %72 ], [ %33, %25 ]
  %83 = phi i64 [ %34, %43 ], [ %34, %45 ], [ %34, %50 ], [ %34, %55 ], [ %34, %60 ], [ %63, %62 ], [ %34, %64 ], [ %34, %66 ], [ %34, %68 ], [ %34, %70 ], [ %34, %72 ], [ %34, %25 ]
  %84 = phi i64 [ %35, %43 ], [ %35, %45 ], [ %35, %50 ], [ %35, %55 ], [ %35, %60 ], [ %35, %62 ], [ %65, %64 ], [ %35, %66 ], [ %35, %68 ], [ %35, %70 ], [ %35, %72 ], [ %35, %25 ]
  %85 = phi i64 [ %36, %43 ], [ %36, %45 ], [ %36, %50 ], [ %36, %55 ], [ %36, %60 ], [ %36, %62 ], [ %36, %64 ], [ %67, %66 ], [ %36, %68 ], [ %36, %70 ], [ %36, %72 ], [ %36, %25 ]
  %86 = phi i64 [ %37, %43 ], [ %37, %45 ], [ %37, %50 ], [ %37, %55 ], [ %37, %60 ], [ %37, %62 ], [ %37, %64 ], [ %37, %66 ], [ %69, %68 ], [ %37, %70 ], [ %37, %72 ], [ %37, %25 ]
  %87 = phi i64 [ %38, %43 ], [ %38, %45 ], [ %38, %50 ], [ %38, %55 ], [ %38, %60 ], [ %38, %62 ], [ %38, %64 ], [ %38, %66 ], [ %38, %68 ], [ %71, %70 ], [ %38, %72 ], [ %38, %25 ]
  %88 = phi i64 [ %39, %43 ], [ %39, %45 ], [ %39, %50 ], [ %39, %55 ], [ %39, %60 ], [ %39, %62 ], [ %39, %64 ], [ %39, %66 ], [ %39, %68 ], [ %39, %70 ], [ %73, %72 ], [ %39, %25 ]
  %89 = add nuw i64 %.034, 1
  %exitcond.not = icmp eq i64 %89, %6
  br i1 %exitcond.not, label %.loopexit, label %25, !llvm.loop !72

.loopexit:                                        ; preds = %74, %5, %2
  %.031 = phi i32 [ 1, %2 ], [ 0, %5 ], [ 0, %74 ]
  ret i32 %.031
}